target datalayout = "e-m:e-p270:32:32-p271:32:32-p272:64:64-i64:64-i128:128-f80:128-n8:16:32:64-S128"
target triple = "x86_64-pc-linux-gnu"

@.str.868 = private unnamed_addr constant [4 x i8] c"ptp\00", align 1
@proto_ptp = internal global i32 0, align 4
@.str.879 = private unnamed_addr constant [18 x i8] c"ptp_over_ethernet\00", align 1
@.str.880 = private unnamed_addr constant [9 x i8] c"udp.port\00", align 1
@.str.881 = private unnamed_addr constant [8 x i8] c"319-320\00", align 1
@.str.882 = private unnamed_addr constant [10 x i8] c"ethertype\00", align 1

; Function Attrs: null_pointer_is_valid sspstrong uwtable
define hidden void @proto_reg_handoff_ptp() #1 {
  %1 = alloca ptr, align 8
  %2 = alloca ptr, align 8
  call void @llvm.lifetime.start.p0(i64 8, ptr %1) #10
  call void @llvm.lifetime.start.p0(i64 8, ptr %2) #10
  %3 = load i32, ptr @proto_ptp, align 4
  %4 = call ptr @register_dissector(ptr noundef @.str.868, ptr noundef @dissect_ptp, i32 noundef %3)
  store ptr %4, ptr %1, align 8
  %5 = load i32, ptr @proto_ptp, align 4
  %6 = call ptr @register_dissector(ptr noundef @.str.879, ptr noundef @dissect_ptp_oE, i32 noundef %5)
  store ptr %6, ptr %2, align 8
  %7 = load ptr, ptr %1, align 8
  call void @dissector_add_uint_range_with_preference(ptr noundef @.str.880, ptr noundef @.str.881, ptr noundef %7)
  %8 = load ptr, ptr %2, align 8
  call void @dissector_add_uint(ptr noundef @.str.882, i32 noundef 35063, ptr noundef %8)
  call void @llvm.lifetime.end.p0(i64 8, ptr %2) #10
  call void @llvm.lifetime.end.p0(i64 8, ptr %1) #10
  ret void
}