; Function Attrs: null_pointer_is_valid sspstrong uwtable
define hidden void @proto_reg_handoff_ptp() local_unnamed_addr #1 {
  %1 = load i32, ptr @proto_ptp, align 4
  %2 = tail call ptr @register_dissector(ptr noundef nonnull @.str.868, ptr noundef nonnull @dissect_ptp, i32 noundef %1)
  %3 = load i32, ptr @proto_ptp, align 4
  %4 = tail call ptr @register_dissector(ptr noundef nonnull @.str.879, ptr noundef nonnull @dissect_ptp_oE, i32 noundef %3)
  tail call void @dissector_add_uint_range_with_preference(ptr noundef nonnull @.str.880, ptr noundef nonnull @.str.881, ptr noundef %2)
  tail call void @dissector_add_uint(ptr noundef nonnull @.str.882, i32 noundef 35063, ptr noundef %4)
  ret void
}